; Function Attrs: mustprogress nofree norecurse nosync nounwind willreturn memory(argmem: write) uwtable
define internal range(i32 -1, 57) i32 @prolog2(ptr noundef writeonly captures(none) %0, i32 noundef %1, ptr readnone captures(none) %2, ptr readnone captures(none) %3, ptr readnone captures(none) %4) #0 {
  %6 = add i32 %1, -11
  %7 = tail call i32 @llvm.fshl.i32(i32 %6, i32 %6, i32 31)
  switch i32 %7, label %11 [
    i32 2, label %12
    i32 0, label %8
    i32 1, label %9
    i32 9, label %10
  ]

8:                                                ; preds = %5
  br label %12

9:                                                ; preds = %5
  br label %12

10:                                               ; preds = %5
  store ptr @error, ptr %0, align 8, !tbaa !4
  br label %12

11:                                               ; preds = %5
  store ptr @error, ptr %0, align 8, !tbaa !4
  br label %12

12:                                               ; preds = %5, %11, %10, %9, %8
  %.0 = phi i32 [ -1, %11 ], [ 2, %10 ], [ 56, %9 ], [ 55, %8 ], [ 0, %5 ]
  ret i32 %.0
}